; Function Attrs: nounwind uwtable
define void @Json_Write(ptr noundef %0, ptr noundef %1, ptr noundef %2) local_unnamed_addr #2 {
  %4 = tail call noalias ptr @fopen(ptr noundef %0, ptr noundef nonnull @.str.35)
  %5 = icmp eq ptr %4, null
  br i1 %5, label %6, label %8

6:                                                ; preds = %3
  %7 = tail call i32 (ptr, ...) @printf(ptr noundef nonnull dereferenceable(1) @.str.36, ptr noundef %0)
  br label %11

8:                                                ; preds = %3
  %9 = getelementptr i8, ptr %2, i64 8
  %.val = load ptr, ptr %9, align 8
  tail call void @Json_Write_rec(ptr noundef nonnull %4, ptr noundef %1, ptr noundef %2, ptr noundef %.val, i32 noundef 1, i32 noundef 0, i32 noundef 1)
  %10 = tail call i32 @fclose(ptr noundef nonnull %4)
  br label %11

11:                                               ; preds = %8, %6
  ret void
}